; Function Attrs: mustprogress uwtable
define void @_ZN9grpc_core26ExternalAccountCredentials30OnRetrieveSubjectTokenInternalESt17basic_string_viewIcSt11char_traitsIcEEN4absl12lts_202308026StatusE(ptr noundef nonnull align 8 dereferenceable(560) %this, i64 %subject_token.coerce0, ptr %subject_token.coerce1, ptr nocapture noundef readonly %error) local_unnamed_addr #3 align 2 personality ptr @__gxx_personality_v0 {
entry:
  %agg.tmp = alloca %"class.absl::lts_20230802::Status", align 8
  %0 = load i64, ptr %error, align 8
  %cmp.i = icmp eq i64 %0, 0
  br i1 %cmp.i, label %if.else, label %if.then

if.then:                                          ; preds = %entry
  store i64 %0, ptr %agg.tmp, align 8
  %and.i.i.i = and i64 %0, 1
  %cmp.i.i.i = icmp eq i64 %and.i.i.i, 0
  br i1 %cmp.i.i.i, label %_ZN4absl12lts_202308026StatusC2ERKS1_.exit, label %if.then.i.i

if.then.i.i:                                      ; preds = %if.then
  %sub.i.i.i = add nsw i64 %0, -1
  %1 = inttoptr i64 %sub.i.i.i to ptr
  %2 = atomicrmw add ptr %1, i32 1 monotonic, align 4
  br label %_ZN4absl12lts_202308026StatusC2ERKS1_.exit

_ZN4absl12lts_202308026StatusC2ERKS1_.exit:       ; preds = %if.then, %if.then.i.i
  invoke void @_ZN9grpc_core26ExternalAccountCredentials16FinishTokenFetchEN4absl12lts_202308026StatusE(ptr noundef nonnull align 8 dereferenceable(560) %this, ptr noundef nonnull %agg.tmp)
          to label %invoke.cont unwind label %lpad

invoke.cont:                                      ; preds = %_ZN4absl12lts_202308026StatusC2ERKS1_.exit
  br i1 %cmp.i.i.i, label %if.end, label %if.then.i.i3

if.then.i.i3:                                     ; preds = %invoke.cont
  invoke void @_ZN4absl12lts_202308026Status15UnrefNonInlinedEm(i64 noundef %0)
          to label %if.end unwind label %terminate.lpad.i

terminate.lpad.i:                                 ; preds = %if.then.i.i3
  %3 = landingpad { ptr, i32 }
          catch ptr null
  %4 = extractvalue { ptr, i32 } %3, 0
  tail call void @__clang_call_terminate(ptr %4) #25
  unreachable

lpad:                                             ; preds = %_ZN4absl12lts_202308026StatusC2ERKS1_.exit
  %5 = landingpad { ptr, i32 }
          cleanup
  call void @_ZN4absl12lts_202308026StatusD2Ev(ptr noundef nonnull align 8 dereferenceable(8) %agg.tmp) #24
  resume { ptr, i32 } %5

if.else:                                          ; preds = %entry
  tail call void @_ZN9grpc_core26ExternalAccountCredentials13ExchangeTokenESt17basic_string_viewIcSt11char_traitsIcEE(ptr noundef nonnull align 8 dereferenceable(560) %this, i64 %subject_token.coerce0, ptr %subject_token.coerce1)
  br label %if.end

if.end:                                           ; preds = %if.then.i.i3, %invoke.cont, %if.else
  ret void
}